; Function Attrs: nounwind uwtable
define dso_local { ptr, ptr } @block_bind_referenced(ptr readnone captures(none) %0, ptr %1, ptr %2, ptr %3, i32 noundef %4) local_unnamed_addr #1 {
  %6 = alloca i32, align 4
  %7 = or i32 %4, 1024
  %8 = icmp eq ptr %1, null
  br i1 %8, label %block_take_last.exit, label %.lr.ph

.lr.ph:                                           ; preds = %5, %block_free.exit
  %.sroa.5.020 = phi ptr [ %.sroa.5.1, %block_free.exit ], [ %3, %5 ]
  %.sroa.07.019 = phi ptr [ %.sroa.07.1, %block_free.exit ], [ %2, %5 ]
  %.sroa.2.018 = phi ptr [ %10, %block_free.exit ], [ %1, %5 ]
  %9 = getelementptr inbounds nuw i8, ptr %.sroa.2.018, i64 8
  %10 = load ptr, ptr %9, align 8, !tbaa !34
  %.not.i = icmp eq ptr %10, null
  br i1 %.not.i, label %13, label %11

11:                                               ; preds = %.lr.ph
  %12 = load ptr, ptr %.sroa.2.018, align 8, !tbaa !22
  store ptr %12, ptr %10, align 8, !tbaa !22
  store ptr null, ptr %9, align 8, !tbaa !34
  br label %13

13:                                               ; preds = %.lr.ph, %11
  call void @llvm.lifetime.start.p0(i64 4, ptr nonnull %6) #17
  %14 = call fastcc i32 @block_bind_subblock_inner(ptr noundef %6, ptr nonnull %.sroa.2.018, ptr %.sroa.07.019, i32 noundef range(i32 1024, 5) %7, i32 noundef 0)
  call void @llvm.lifetime.end.p0(i64 4, ptr nonnull %6) #17
  %15 = icmp eq i32 %14, 0
  br i1 %15, label %.lr.ph.i, label %17

.lr.ph.i:                                         ; preds = %13, %.lr.ph.i
  %.05.i = phi ptr [ %16, %.lr.ph.i ], [ %.sroa.2.018, %13 ]
  %16 = load ptr, ptr %.05.i, align 8, !tbaa !22
  tail call fastcc void @inst_free(ptr noundef nonnull %.05.i)
  %.not.i11 = icmp eq ptr %16, null
  br i1 %.not.i11, label %block_free.exit, label %.lr.ph.i, !llvm.loop !35

17:                                               ; preds = %13
  %.not.i.i = icmp eq ptr %.sroa.07.019, null
  br i1 %.not.i.i, label %block_free.exit, label %18

18:                                               ; preds = %17
  store ptr %.sroa.07.019, ptr %.sroa.2.018, align 8, !tbaa !22
  %19 = getelementptr inbounds nuw i8, ptr %.sroa.07.019, i64 8
  store ptr %.sroa.2.018, ptr %19, align 8, !tbaa !34
  br label %block_free.exit

block_free.exit:                                  ; preds = %.lr.ph.i, %18, %17
  %.sroa.07.1 = phi ptr [ %.sroa.2.018, %17 ], [ %.sroa.2.018, %18 ], [ %.sroa.07.019, %.lr.ph.i ]
  %.sroa.5.1 = phi ptr [ %.sroa.2.018, %17 ], [ %.sroa.5.020, %18 ], [ %.sroa.5.020, %.lr.ph.i ]
  br i1 %.not.i, label %block_take_last.exit, label %.lr.ph, !llvm.loop !43

block_take_last.exit:                             ; preds = %block_free.exit, %5
  %.sroa.07.0.lcssa = phi ptr [ %2, %5 ], [ %.sroa.07.1, %block_free.exit ]
  %.sroa.5.0.lcssa = phi ptr [ %3, %5 ], [ %.sroa.5.1, %block_free.exit ]
  %.fca.0.insert = insertvalue { ptr, ptr } poison, ptr %.sroa.07.0.lcssa, 0
  %.fca.1.insert = insertvalue { ptr, ptr } %.fca.0.insert, ptr %.sroa.5.0.lcssa, 1
  ret { ptr, ptr } %.fca.1.insert
}